; Function Attrs: nounwind uwtable
define ptr @l_Lean_occursCheck___rarg___lambda__1(ptr noundef %0, ptr noundef readonly captures(none) %1) local_unnamed_addr #0 {
  %3 = getelementptr inbounds nuw i8, ptr %1, i64 8
  %4 = load ptr, ptr %3, align 8, !tbaa !4
  %5 = ptrtoint ptr %4 to i64
  %6 = and i64 %5, 1
  %.not.i34 = icmp eq i64 %6, 0
  br i1 %.not.i34, label %10, label %7

7:                                                ; preds = %2
  %8 = lshr i64 %5, 1
  %9 = trunc i64 %8 to i32
  br label %lean_obj_tag.exit

10:                                               ; preds = %2
  %11 = getelementptr i8, ptr %4, i64 4
  %.val.i = load i32, ptr %11, align 4
  %12 = lshr i32 %.val.i, 24
  br label %lean_obj_tag.exit

lean_obj_tag.exit:                                ; preds = %7, %10
  %.0.i = phi i32 [ %9, %7 ], [ %12, %10 ]
  %13 = icmp eq i32 %.0.i, 0
  %14 = getelementptr inbounds nuw i8, ptr %0, i64 8
  %15 = load ptr, ptr %14, align 8, !tbaa !4
  %16 = ptrtoint ptr %15 to i64
  %17 = and i64 %16, 1
  %.not48 = icmp eq i64 %17, 0
  br i1 %13, label %18, label %52

18:                                               ; preds = %lean_obj_tag.exit
  br i1 %.not48, label %19, label %lean_inc.exit24

19:                                               ; preds = %18
  %.val.i35 = load i32, ptr %15, align 4, !tbaa !8
  %20 = icmp sgt i32 %.val.i35, 0
  br i1 %20, label %21, label %23, !prof !11

21:                                               ; preds = %19
  %22 = add nuw i32 %.val.i35, 1
  store i32 %22, ptr %15, align 4, !tbaa !8
  br label %lean_inc.exit24

23:                                               ; preds = %19
  %.not.i36 = icmp eq i32 %.val.i35, 0
  br i1 %.not.i36, label %lean_inc.exit24, label %24

24:                                               ; preds = %23
  tail call void @lean_inc_ref_cold(ptr noundef nonnull %15) #4
  br label %lean_inc.exit24

lean_inc.exit24:                                  ; preds = %24, %23, %21, %18
  %25 = ptrtoint ptr %0 to i64
  %26 = and i64 %25, 1
  %.not49 = icmp eq i64 %26, 0
  br i1 %.not49, label %27, label %lean_dec.exit27

27:                                               ; preds = %lean_inc.exit24
  %28 = load i32, ptr %0, align 4, !tbaa !8
  %29 = icmp sgt i32 %28, 1
  br i1 %29, label %30, label %32, !prof !11

30:                                               ; preds = %27
  %31 = add nsw i32 %28, -1
  store i32 %31, ptr %0, align 4, !tbaa !8
  br label %lean_dec.exit27

32:                                               ; preds = %27
  %.not.i = icmp eq i32 %28, 0
  br i1 %.not.i, label %lean_dec.exit27, label %33

33:                                               ; preds = %32
  tail call void @lean_dec_ref_cold(ptr noundef nonnull %0) #4
  br label %lean_dec.exit27

lean_dec.exit27:                                  ; preds = %33, %32, %30, %lean_inc.exit24
  %34 = getelementptr inbounds nuw i8, ptr %15, i64 16
  %35 = load ptr, ptr %34, align 8, !tbaa !4
  %36 = ptrtoint ptr %35 to i64
  %37 = and i64 %36, 1
  %.not50 = icmp eq i64 %37, 0
  br i1 %.not50, label %38, label %lean_inc.exit23

38:                                               ; preds = %lean_dec.exit27
  %.val.i37 = load i32, ptr %35, align 4, !tbaa !8
  %39 = icmp sgt i32 %.val.i37, 0
  br i1 %39, label %40, label %42, !prof !11

40:                                               ; preds = %38
  %41 = add nuw i32 %.val.i37, 1
  store i32 %41, ptr %35, align 4, !tbaa !8
  br label %lean_inc.exit23

42:                                               ; preds = %38
  %.not.i38 = icmp eq i32 %.val.i37, 0
  br i1 %.not.i38, label %lean_inc.exit23, label %43

43:                                               ; preds = %42
  tail call void @lean_inc_ref_cold(ptr noundef nonnull %35) #4
  br label %lean_inc.exit23

lean_inc.exit23:                                  ; preds = %43, %42, %40, %lean_dec.exit27
  br i1 %.not48, label %44, label %lean_dec.exit26

44:                                               ; preds = %lean_inc.exit23
  %45 = load i32, ptr %15, align 4, !tbaa !8
  %46 = icmp sgt i32 %45, 1
  br i1 %46, label %47, label %49, !prof !11

47:                                               ; preds = %44
  %48 = add nsw i32 %45, -1
  store i32 %48, ptr %15, align 4, !tbaa !8
  br label %lean_dec.exit26

49:                                               ; preds = %44
  %.not.i28 = icmp eq i32 %45, 0
  br i1 %.not.i28, label %lean_dec.exit26, label %50

50:                                               ; preds = %49
  tail call void @lean_dec_ref_cold(ptr noundef nonnull %15) #4
  br label %lean_dec.exit26

lean_dec.exit26:                                  ; preds = %50, %49, %47, %lean_inc.exit23
  %51 = tail call ptr @lean_apply_2(ptr noundef %35, ptr noundef nonnull inttoptr (i64 1 to ptr), ptr noundef nonnull inttoptr (i64 1 to ptr)) #4
  br label %86

52:                                               ; preds = %lean_obj_tag.exit
  br i1 %.not48, label %53, label %lean_inc.exit22

53:                                               ; preds = %52
  %.val.i40 = load i32, ptr %15, align 4, !tbaa !8
  %54 = icmp sgt i32 %.val.i40, 0
  br i1 %54, label %55, label %57, !prof !11

55:                                               ; preds = %53
  %56 = add nuw i32 %.val.i40, 1
  store i32 %56, ptr %15, align 4, !tbaa !8
  br label %lean_inc.exit22

57:                                               ; preds = %53
  %.not.i41 = icmp eq i32 %.val.i40, 0
  br i1 %.not.i41, label %lean_inc.exit22, label %58

58:                                               ; preds = %57
  tail call void @lean_inc_ref_cold(ptr noundef nonnull %15) #4
  br label %lean_inc.exit22

lean_inc.exit22:                                  ; preds = %58, %57, %55, %52
  %59 = ptrtoint ptr %0 to i64
  %60 = and i64 %59, 1
  %.not46 = icmp eq i64 %60, 0
  br i1 %.not46, label %61, label %lean_dec.exit25

61:                                               ; preds = %lean_inc.exit22
  %62 = load i32, ptr %0, align 4, !tbaa !8
  %63 = icmp sgt i32 %62, 1
  br i1 %63, label %64, label %66, !prof !11

64:                                               ; preds = %61
  %65 = add nsw i32 %62, -1
  store i32 %65, ptr %0, align 4, !tbaa !8
  br label %lean_dec.exit25

66:                                               ; preds = %61
  %.not.i30 = icmp eq i32 %62, 0
  br i1 %.not.i30, label %lean_dec.exit25, label %67

67:                                               ; preds = %66
  tail call void @lean_dec_ref_cold(ptr noundef nonnull %0) #4
  br label %lean_dec.exit25

lean_dec.exit25:                                  ; preds = %67, %66, %64, %lean_inc.exit22
  %68 = getelementptr inbounds nuw i8, ptr %15, i64 16
  %69 = load ptr, ptr %68, align 8, !tbaa !4
  %70 = ptrtoint ptr %69 to i64
  %71 = and i64 %70, 1
  %.not47 = icmp eq i64 %71, 0
  br i1 %.not47, label %72, label %lean_inc.exit

72:                                               ; preds = %lean_dec.exit25
  %.val.i43 = load i32, ptr %69, align 4, !tbaa !8
  %73 = icmp sgt i32 %.val.i43, 0
  br i1 %73, label %74, label %76, !prof !11

74:                                               ; preds = %72
  %75 = add nuw i32 %.val.i43, 1
  store i32 %75, ptr %69, align 4, !tbaa !8
  br label %lean_inc.exit

76:                                               ; preds = %72
  %.not.i44 = icmp eq i32 %.val.i43, 0
  br i1 %.not.i44, label %lean_inc.exit, label %77

77:                                               ; preds = %76
  tail call void @lean_inc_ref_cold(ptr noundef nonnull %69) #4
  br label %lean_inc.exit

lean_inc.exit:                                    ; preds = %77, %76, %74, %lean_dec.exit25
  br i1 %.not48, label %78, label %lean_dec.exit

78:                                               ; preds = %lean_inc.exit
  %79 = load i32, ptr %15, align 4, !tbaa !8
  %80 = icmp sgt i32 %79, 1
  br i1 %80, label %81, label %83, !prof !11

81:                                               ; preds = %78
  %82 = add nsw i32 %79, -1
  store i32 %82, ptr %15, align 4, !tbaa !8
  br label %lean_dec.exit

83:                                               ; preds = %78
  %.not.i32 = icmp eq i32 %79, 0
  br i1 %.not.i32, label %lean_dec.exit, label %84

84:                                               ; preds = %83
  tail call void @lean_dec_ref_cold(ptr noundef nonnull %15) #4
  br label %lean_dec.exit

lean_dec.exit:                                    ; preds = %84, %83, %81, %lean_inc.exit
  %85 = tail call ptr @lean_apply_2(ptr noundef %69, ptr noundef nonnull inttoptr (i64 1 to ptr), ptr noundef nonnull inttoptr (i64 3 to ptr)) #4
  br label %86

86:                                               ; preds = %lean_dec.exit, %lean_dec.exit26
  %.0 = phi ptr [ %51, %lean_dec.exit26 ], [ %85, %lean_dec.exit ]
  ret ptr %.0
}